Certificate:
    Data:
        Version: 3 (0x2)
        Serial Number: 1 (0x1)
    Signature Algorithm: sha256WithRSAEncryption
        Issuer: O=Test Org, CN=Test Org rauc CA Development
        Validity
            Not Before: Jan  1 00:00:00 1970 GMT
            Not After : Dec 31 23:59:59 9999 GMT
        Subject: O=Test Org, CN=Test Org rauc CA Development
        Subject Public Key Info:
            Public Key Algorithm: rsaEncryption
                Public-Key: (2048 bit)
                Modulus:
                    00:b9:f8:77:d3:e1:65:45:58:af:10:8e:ec:ab:f2:
                    0b:76:b7:b5:a3:d0:28:b5:d9:53:72:07:75:0c:08:
                    d2:ad:51:2b:ce:c7:b6:86:a9:d4:a4:d0:0a:89:9b:
                    e9:5d:59:1c:84:11:72:45:04:35:a9:f2:85:07:b6:
                    7e:50:0b:88:df:95:75:1b:bb:64:9c:2b:78:45:99:
                    0d:dc:f8:75:b0:50:0b:00:49:dc:24:3c:cf:e9:1d:
                    28:fc:08:ae:71:02:0b:30:25:a6:db:3e:b5:2b:5d:
                    7a:8f:de:67:65:17:c4:2b:cc:7d:b9:c2:4e:5f:1d:
                    13:d9:fe:c5:8e:cb:52:55:d8:26:6e:da:e4:9e:7c:
                    b0:3d:9d:6a:91:2b:d9:76:cc:1e:cb:d1:d1:c9:91:
                    7e:05:b0:4b:ba:fb:f9:d8:9c:8a:82:10:e3:81:7f:
                    f2:c7:95:64:97:67:eb:c3:a7:2e:03:00:4d:dc:3f:
                    c4:02:a5:4f:9a:fa:9c:12:1d:49:01:47:f8:6a:b7:
                    3e:25:7e:33:3b:fe:9f:ac:50:c4:4f:ce:a9:1b:5f:
                    39:bb:a3:2a:84:53:6a:3e:5e:b4:e5:d5:3a:9b:63:
                    9e:c8:c1:30:47:9b:c7:a7:83:e3:75:7e:cd:fd:d7:
                    44:c2:e5:80:3f:f4:a9:8e:71:83:4e:af:67:07:df:
                    0b:5f
                Exponent: 65537 (0x10001)
        X509v3 extensions:
            X509v3 Subject Key Identifier: 
                41:49:3A:9E:77:8F:A3:F5:0E:EC:A0:FC:12:CE:2B:E2:27:51:B2:43
            X509v3 Authority Key Identifier: 
                keyid:41:49:3A:9E:77:8F:A3:F5:0E:EC:A0:FC:12:CE:2B:E2:27:51:B2:43
                DirName:/O=Test Org/CN=Test Org rauc CA Development
                serial:01

            X509v3 Basic Constraints: 
                CA:TRUE
    Signature Algorithm: sha256WithRSAEncryption
         8d:3e:38:f4:d5:d2:b2:ce:05:7c:3c:67:44:ae:f5:4a:06:4a:
         a7:44:9c:96:a7:8f:0e:1e:23:30:17:7a:5a:5f:2d:8b:ea:7d:
         5d:26:65:e1:4e:91:c7:4a:94:fd:13:8e:c5:2f:07:dd:f9:50:
         91:ae:42:ca:0d:77:ca:80:f3:4b:29:c7:4d:78:97:2d:9d:c7:
         af:d5:08:2e:54:44:b4:15:f4:0d:a4:c2:9f:14:87:24:1d:50:
         05:14:ab:45:e9:e8:c0:3f:89:99:98:fb:46:71:33:6c:b6:6a:
         f5:b6:d0:fb:73:65:ea:a3:f3:ef:22:ac:40:60:12:e7:1f:ff:
         2f:61:6c:89:2a:35:cc:0b:77:9d:e5:8e:ce:49:6c:f7:7a:c1:
         9b:17:7c:ac:e7:e3:32:12:8b:7b:c1:59:23:7e:de:02:a8:c1:
         cc:b1:20:5d:ca:bd:de:54:96:aa:e2:f6:32:87:0b:b3:42:ac:
         5e:57:d1:cb:67:e5:62:ff:4c:69:ed:5b:a7:6f:c7:81:ab:1e:
         64:d9:21:77:39:03:79:f8:83:47:4e:68:cd:18:71:9a:f1:c0:
         1c:13:c0:fc:52:54:11:0a:23:37:f1:9b:90:f0:2d:9c:cb:09:
         14:46:ed:12:e0:1f:b1:d8:3a:09:0a:b1:3a:b9:a5:75:c6:5b:
         2a:f7:65:05
-----BEGIN CERTIFICATE-----
MIIDiDCCAnCgAwIBAgIBATANBgkqhkiG9w0BAQsFADA6MREwDwYDVQQKDAhUZXN0
IE9yZzElMCMGA1UEAwwcVGVzdCBPcmcgcmF1YyBDQSBEZXZlbG9wbWVudDAiGA8x
OTcwMDEwMTAwMDAwMFoYDzk5OTkxMjMxMjM1OTU5WjA6MREwDwYDVQQKDAhUZXN0
IE9yZzElMCMGA1UEAwwcVGVzdCBPcmcgcmF1YyBDQSBEZXZlbG9wbWVudDCCASIw
DQYJKoZIhvcNAQEBBQADggEPADCCAQoCggEBALn4d9PhZUVYrxCO7KvyC3a3taPQ
KLXZU3IHdQwI0q1RK87Htoap1KTQComb6V1ZHIQRckUENanyhQe2flALiN+VdRu7
ZJwreEWZDdz4dbBQCwBJ3CQ8z+kdKPwIrnECCzAlpts+tStdeo/eZ2UXxCvMfbnC
Tl8dE9n+xY7LUlXYJm7a5J58sD2dapEr2XbMHsvR0cmRfgWwS7r7+dicioIQ44F/
8seVZJdn68OnLgMATdw/xAKlT5r6nBIdSQFH+Gq3PiV+Mzv+n6xQxE/OqRtfObuj
KoRTaj5etOXVOptjnsjBMEebx6eD43V+zf3XRMLlgD/0qY5xg06vZwffC18CAwEA
AaOBlDCBkTAdBgNVHQ4EFgQUQUk6nnePo/UO7KD8Es4r4idRskMwYgYDVR0jBFsw
WYAUQUk6nnePo/UO7KD8Es4r4idRskOhPqQ8MDoxETAPBgNVBAoMCFRlc3QgT3Jn
MSUwIwYDVQQDDBxUZXN0IE9yZyByYXVjIENBIERldmVsb3BtZW50ggEBMAwGA1Ud
EwQFMAMBAf8wDQYJKoZIhvcNAQELBQADggEBAI0+OPTV0rLOBXw8Z0Su9UoGSqdE
nJanjw4eIzAXelpfLYvqfV0mZeFOkcdKlP0TjsUvB935UJGuQsoNd8qA80spx014
ly2dx6/VCC5URLQV9A2kwp8UhyQdUAUUq0Xp6MA/iZmY+0ZxM2y2avW20PtzZeqj
8+8irEBgEucf/y9hbIkqNcwLd53ljs5JbPd6wZsXfKzn4zISi3vBWSN+3gKowcyx
IF3Kvd5Ulqri9jKHC7NCrF5X0ctn5WL/TGntW6dvx4GrHmTZIXc5A3n4g0dOaM0Y
cZrxwBwTwPxSVBEKIzfxm5DwLZzLCRRG7RLgH7HYOgkKsTq5pXXGWyr3ZQU=
-----END CERTIFICATE-----
