Certificate:
    Data:
        Version: 3 (0x2)
        Serial Number: 2 (0x2)
    Signature Algorithm: sha256WithRSAEncryption
        Issuer: O=Test Org, CN=Test Org rauc CA Development
        Validity
            Not Before: Jan  1 00:00:00 1970 GMT
            Not After : Dec 31 23:59:59 9999 GMT
        Subject: O=Test Org, CN=Test Org Development-1
        Subject Public Key Info:
            Public Key Algorithm: rsaEncryption
                Public-Key: (2048 bit)
                Modulus:
                    00:cd:06:5c:b1:40:0c:26:2e:32:32:36:85:5d:88:
                    f3:8d:71:6a:00:cd:21:92:4c:f0:0e:9f:c9:67:58:
                    b7:d0:7f:60:69:32:57:64:b5:74:d8:12:55:fa:cd:
                    52:8c:89:00:e0:c1:1b:98:44:b4:39:ee:01:57:ac:
                    d7:8b:1e:a8:ab:f2:97:ae:65:68:02:c4:a4:9a:2f:
                    55:a5:f1:ad:96:29:e5:7e:68:a0:17:fc:61:5f:f4:
                    e1:82:b9:28:f1:94:ec:58:22:d6:99:76:ce:45:b4:
                    a4:78:4f:1b:91:0a:26:cc:39:e9:4c:06:23:4c:a2:
                    5d:a5:4e:3f:ba:82:2e:1a:cd:85:53:d1:4d:e4:60:
                    ee:47:06:b6:43:c1:dd:c8:a3:6d:b1:7a:15:9c:a8:
                    f9:14:5b:ac:0a:df:c0:6c:b9:02:d9:ed:4f:48:d0:
                    e3:d6:06:ee:d9:35:78:b1:9d:83:30:42:8c:23:c4:
                    10:5b:8b:d0:d4:1e:3d:15:f7:73:b5:2c:e9:95:bf:
                    70:c1:a6:ed:73:50:8f:1d:81:61:c8:99:31:2a:6b:
                    be:3f:89:3c:3e:d6:37:bc:ae:e0:2a:a9:02:11:a1:
                    fe:34:b9:c2:c8:99:4f:70:35:3a:40:58:a7:21:0d:
                    b9:e4:f6:1f:8e:3f:e8:2e:ce:13:e0:c6:d6:3d:20:
                    e7:af
                Exponent: 65537 (0x10001)
        X509v3 extensions:
            X509v3 Subject Key Identifier: 
                3B:57:1D:65:0F:C8:F0:8A:4D:98:06:E2:7A:CE:7D:85:F5:89:DB:61
            X509v3 Authority Key Identifier: 
                keyid:41:49:3A:9E:77:8F:A3:F5:0E:EC:A0:FC:12:CE:2B:E2:27:51:B2:43
                DirName:/O=Test Org/CN=Test Org rauc CA Development
                serial:01

            X509v3 Basic Constraints: 
                CA:FALSE
    Signature Algorithm: sha256WithRSAEncryption
         3b:18:9b:b8:a0:44:97:ef:ec:f5:07:5d:cc:85:9a:0b:55:f5:
         6b:75:20:08:ed:c9:5a:f5:69:63:9f:ed:59:53:a7:c4:dc:c0:
         32:98:12:23:18:ae:75:d8:d0:60:6a:7b:e9:54:a2:99:aa:8c:
         0a:d9:e0:fe:5f:3b:ad:38:f0:a4:18:02:16:93:f6:39:5a:d2:
         16:16:a0:98:70:b0:68:a5:ee:34:c4:00:f7:06:79:e5:e2:b6:
         8c:64:d7:36:2f:15:d7:94:e5:86:8e:9a:a3:f6:0f:00:0b:a3:
         99:bb:3e:e5:bb:6c:a2:e1:b6:fe:46:fa:94:95:4d:6f:2c:7d:
         15:7b:58:30:22:b8:c8:fc:81:c8:8b:c5:08:a3:85:32:79:f1:
         4c:e9:f7:10:c1:1b:50:db:76:0a:0b:f2:e0:38:61:20:21:93:
         d6:81:4f:fb:66:97:62:c7:8d:94:e5:3b:fa:ac:e9:ad:7a:47:
         d8:f7:5f:b5:64:fc:65:82:84:cc:16:31:72:54:78:f8:be:18:
         b3:a1:5e:bb:74:55:14:14:bd:b0:64:72:50:15:ab:85:aa:9f:
         4d:25:9f:e6:d9:64:ba:e5:b8:a3:e6:81:ad:ad:9c:ba:6c:71:
         ec:1e:ca:1c:f0:16:25:b6:45:88:3a:14:eb:97:da:3f:43:d5:
         6f:e0:42:2d
-----BEGIN CERTIFICATE-----
MIIDfzCCAmegAwIBAgIBAjANBgkqhkiG9w0BAQsFADA6MREwDwYDVQQKDAhUZXN0
IE9yZzElMCMGA1UEAwwcVGVzdCBPcmcgcmF1YyBDQSBEZXZlbG9wbWVudDAiGA8x
OTcwMDEwMTAwMDAwMFoYDzk5OTkxMjMxMjM1OTU5WjA0MREwDwYDVQQKDAhUZXN0
IE9yZzEfMB0GA1UEAwwWVGVzdCBPcmcgRGV2ZWxvcG1lbnQtMTCCASIwDQYJKoZI
hvcNAQEBBQADggEPADCCAQoCggEBAM0GXLFADCYuMjI2hV2I841xagDNIZJM8A6f
yWdYt9B/YGkyV2S1dNgSVfrNUoyJAODBG5hEtDnuAVes14seqKvyl65laALEpJov
VaXxrZYp5X5ooBf8YV/04YK5KPGU7Fgi1pl2zkW0pHhPG5EKJsw56UwGI0yiXaVO
P7qCLhrNhVPRTeRg7kcGtkPB3cijbbF6FZyo+RRbrArfwGy5AtntT0jQ49YG7tk1
eLGdgzBCjCPEEFuL0NQePRX3c7Us6ZW/cMGm7XNQjx2BYciZMSprvj+JPD7WN7yu
4CqpAhGh/jS5wsiZT3A1OkBYpyENueT2H44/6C7OE+DG1j0g568CAwEAAaOBkTCB
jjAdBgNVHQ4EFgQUO1cdZQ/I8IpNmAbies59hfWJ22EwYgYDVR0jBFswWYAUQUk6
nnePo/UO7KD8Es4r4idRskOhPqQ8MDoxETAPBgNVBAoMCFRlc3QgT3JnMSUwIwYD
VQQDDBxUZXN0IE9yZyByYXVjIENBIERldmVsb3BtZW50ggEBMAkGA1UdEwQCMAAw
DQYJKoZIhvcNAQELBQADggEBADsYm7igRJfv7PUHXcyFmgtV9Wt1IAjtyVr1aWOf
7VlTp8TcwDKYEiMYrnXY0GBqe+lUopmqjArZ4P5fO6048KQYAhaT9jla0hYWoJhw
sGil7jTEAPcGeeXitoxk1zYvFdeU5YaOmqP2DwALo5m7PuW7bKLhtv5G+pSVTW8s
fRV7WDAiuMj8gciLxQijhTJ58Uzp9xDBG1DbdgoL8uA4YSAhk9aBT/tml2LHjZTl
O/qs6a16R9j3X7Vk/GWChMwWMXJUePi+GLOhXrt0VRQUvbBkclAVq4Wqn00ln+bZ
ZLrluKPmga2tnLpsceweyhzwFiW2RYg6FOuX2j9D1W/gQi0=
-----END CERTIFICATE-----
